; Function Attrs: mustprogress nofree norecurse nosync nounwind willreturn memory(argmem: readwrite) uwtable
define void @_ZN3zmq9channel_t16xpipe_terminatedEPNS_6pipe_tE(ptr noundef nonnull align 8 captures(none) dereferenceable(1840) %0, ptr noundef readnone %1) unnamed_addr #9 align 2 {
  %3 = getelementptr inbounds nuw i8, ptr %0, i64 1832
  %4 = load ptr, ptr %3, align 8, !tbaa !6
  %5 = icmp eq ptr %1, %4
  br i1 %5, label %6, label %7

6:                                                ; preds = %2
  store ptr null, ptr %3, align 8, !tbaa !6
  br label %7

7:                                                ; preds = %6, %2
  ret void
}